target datalayout = "e-m:e-p270:32:32-p271:32:32-p272:64:64-i64:64-i128:128-f80:128-n8:16:32:64-S128"
target triple = "x86_64-pc-linux-gnu"

%"class.std::locale" = type { ptr }
%class.cmGeneratedFileStreamBase = type <{ %"class.std::__cxx11::basic_string", %"class.std::__cxx11::basic_string", %"class.std::__cxx11::basic_string", i8, i8, i8, i8, [4 x i8] }>
%"class.std::__cxx11::basic_string" = type { %"struct.std::__cxx11::basic_string<char>::_Alloc_hider", i64, %union.anon }
%"struct.std::__cxx11::basic_string<char>::_Alloc_hider" = type { ptr }
%union.anon = type { i64, [8 x i8] }
%"class.std::ios_base" = type { ptr, i64, i64, i32, i32, i32, ptr, %"struct.std::ios_base::_Words", [8 x %"struct.std::ios_base::_Words"], i32, ptr, %"class.std::locale" }
%"struct.std::ios_base::_Words" = type { ptr, i64 }

; Function Attrs: mustprogress nounwind uwtable
define linkonce_odr dso_local void @_ZNKSt8ios_base6getlocEv(ptr dead_on_unwind noalias writable sret(%"class.std::locale") align 8 %0, ptr noundef nonnull align 8 dereferenceable(216) %1) #5 comdat align 2 {
  %3 = alloca ptr, align 8
  %4 = alloca ptr, align 8
  store ptr %0, ptr %3, align 8
  store ptr %1, ptr %4, align 8
  %5 = load ptr, ptr %4, align 8
  %6 = getelementptr inbounds %"class.std::ios_base", ptr %5, i32 0, i32 11
  call void @_ZNSt6localeC1ERKS_(ptr noundef nonnull align 8 dereferenceable(8) %0, ptr noundef nonnull align 8 dereferenceable(8) %6) #3
  ret void
}

; Function Attrs: mustprogress nounwind uwtable
define dso_local void @_ZN25cmGeneratedFileStreamBaseC2Ev(ptr noundef nonnull align 8 dereferenceable(100) %0) unnamed_addr #5 align 2 {
  %2 = alloca ptr, align 8
  store ptr %0, ptr %2, align 8
  %3 = load ptr, ptr %2, align 8
  %4 = getelementptr inbounds %class.cmGeneratedFileStreamBase, ptr %3, i32 0, i32 0
  call void @_ZNSt7__cxx1112basic_stringIcSt11char_traitsIcESaIcEEC1Ev(ptr noundef nonnull align 8 dereferenceable(32) %4) #3
  %5 = getelementptr inbounds %class.cmGeneratedFileStreamBase, ptr %3, i32 0, i32 1
  call void @_ZNSt7__cxx1112basic_stringIcSt11char_traitsIcESaIcEEC1Ev(ptr noundef nonnull align 8 dereferenceable(32) %5) #3
  %6 = getelementptr inbounds %class.cmGeneratedFileStreamBase, ptr %3, i32 0, i32 2
  call void @_ZNSt7__cxx1112basic_stringIcSt11char_traitsIcESaIcEEC1Ev(ptr noundef nonnull align 8 dereferenceable(32) %6) #3
  %7 = getelementptr inbounds %class.cmGeneratedFileStreamBase, ptr %3, i32 0, i32 3
  store i8 0, ptr %7, align 8
  %8 = getelementptr inbounds %class.cmGeneratedFileStreamBase, ptr %3, i32 0, i32 4
  store i8 0, ptr %8, align 1
  %9 = getelementptr inbounds %class.cmGeneratedFileStreamBase, ptr %3, i32 0, i32 5
  store i8 0, ptr %9, align 2
  %10 = getelementptr inbounds %class.cmGeneratedFileStreamBase, ptr %3, i32 0, i32 6
  store i8 1, ptr %10, align 1
  ret void
}

; Function Attrs: mustprogress uwtable
define dso_local void @_ZN21cmGeneratedFileStreamC2E16codecvt_Encoding(ptr noundef nonnull align 8 dereferenceable(348) %0, ptr noundef %1, i32 noundef %2) unnamed_addr #4 align 2 personality ptr @__gxx_personality_v0 {
  %4 = alloca ptr, align 8
  %5 = alloca ptr, align 8
  %6 = alloca i32, align 4
  %7 = alloca ptr, align 8
  %8 = alloca i32, align 4
  %9 = alloca %"class.std::locale", align 8
  %10 = alloca %"class.std::locale", align 8
  %11 = alloca %"class.std::locale", align 8
  store ptr %0, ptr %4, align 8
  store ptr %1, ptr %5, align 8
  store i32 %2, ptr %6, align 4
  %12 = load ptr, ptr %4, align 8
  %13 = load ptr, ptr %5, align 8
  %14 = getelementptr inbounds i8, ptr %12, i64 248
  call void @_ZN25cmGeneratedFileStreamBaseC2Ev(ptr noundef nonnull align 8 dereferenceable(100) %14)
  %15 = getelementptr inbounds ptr, ptr %13, i64 1
  invoke void @_ZNSt14basic_ofstreamIcSt11char_traitsIcEEC2Ev(ptr noundef nonnull align 8 dereferenceable(248) %12, ptr noundef %15)
          to label %16 unwind label %42

16:                                               ; preds = %3
  %17 = load ptr, ptr %13, align 8
  store ptr %17, ptr %12, align 8
  %18 = getelementptr inbounds ptr, ptr %13, i64 5
  %19 = load ptr, ptr %18, align 8
  %20 = load ptr, ptr %12, align 8
  %21 = getelementptr i8, ptr %20, i64 -24
  %22 = load i64, ptr %21, align 8
  %23 = getelementptr inbounds i8, ptr %12, i64 %22
  store ptr %19, ptr %23, align 8
  %24 = load i32, ptr %6, align 4
  %25 = icmp ne i32 %24, 0
  br i1 %25, label %26, label %63

26:                                               ; preds = %16
  %27 = load ptr, ptr %12, align 8
  %28 = getelementptr i8, ptr %27, i64 -24
  %29 = load i64, ptr %28, align 8
  %30 = getelementptr inbounds i8, ptr %12, i64 %29
  %31 = load ptr, ptr %12, align 8
  %32 = getelementptr i8, ptr %31, i64 -24
  %33 = load i64, ptr %32, align 8
  %34 = getelementptr inbounds i8, ptr %12, i64 %33
  invoke void @_ZNKSt8ios_base6getlocEv(ptr dead_on_unwind writable sret(%"class.std::locale") align 8 %11, ptr noundef nonnull align 8 dereferenceable(216) %34)
          to label %35 unwind label %46

35:                                               ; preds = %26
  %36 = invoke noalias noundef nonnull ptr @_Znwm(i64 noundef 32) #11
          to label %37 unwind label %50

37:                                               ; preds = %35
  %38 = load i32, ptr %6, align 4
  invoke void @_ZN7codecvtC1E16codecvt_Encoding(ptr noundef nonnull align 8 dereferenceable(25) %36, i32 noundef %38)
          to label %39 unwind label %54

39:                                               ; preds = %37
  invoke void @_ZNSt6localeC2I7codecvtEERKS_PT_(ptr noundef nonnull align 8 dereferenceable(8) %10, ptr noundef nonnull align 8 dereferenceable(8) %11, ptr noundef %36)
          to label %40 unwind label %50

40:                                               ; preds = %39
  invoke void @_ZNSt9basic_iosIcSt11char_traitsIcEE5imbueERKSt6locale(ptr dead_on_unwind writable sret(%"class.std::locale") align 8 %9, ptr noundef nonnull align 8 dereferenceable(264) %30, ptr noundef nonnull align 8 dereferenceable(8) %10)
          to label %41 unwind label %58

41:                                               ; preds = %40
  call void @_ZNSt6localeD1Ev(ptr noundef nonnull align 8 dereferenceable(8) %9) #3
  call void @_ZNSt6localeD1Ev(ptr noundef nonnull align 8 dereferenceable(8) %10) #3
  call void @_ZNSt6localeD1Ev(ptr noundef nonnull align 8 dereferenceable(8) %11) #3
  br label %63

42:                                               ; preds = %3
  %43 = landingpad { ptr, i32 }
          cleanup
  %44 = extractvalue { ptr, i32 } %43, 0
  store ptr %44, ptr %7, align 8
  %45 = extractvalue { ptr, i32 } %43, 1
  store i32 %45, ptr %8, align 4
  br label %66

46:                                               ; preds = %26
  %47 = landingpad { ptr, i32 }
          cleanup
  %48 = extractvalue { ptr, i32 } %47, 0
  store ptr %48, ptr %7, align 8
  %49 = extractvalue { ptr, i32 } %47, 1
  store i32 %49, ptr %8, align 4
  br label %64

50:                                               ; preds = %39, %35
  %51 = landingpad { ptr, i32 }
          cleanup
  %52 = extractvalue { ptr, i32 } %51, 0
  store ptr %52, ptr %7, align 8
  %53 = extractvalue { ptr, i32 } %51, 1
  store i32 %53, ptr %8, align 4
  br label %62

54:                                               ; preds = %37
  %55 = landingpad { ptr, i32 }
          cleanup
  %56 = extractvalue { ptr, i32 } %55, 0
  store ptr %56, ptr %7, align 8
  %57 = extractvalue { ptr, i32 } %55, 1
  store i32 %57, ptr %8, align 4
  call void @_ZdlPv(ptr noundef %36) #12
  br label %62

58:                                               ; preds = %40
  %59 = landingpad { ptr, i32 }
          cleanup
  %60 = extractvalue { ptr, i32 } %59, 0
  store ptr %60, ptr %7, align 8
  %61 = extractvalue { ptr, i32 } %59, 1
  store i32 %61, ptr %8, align 4
  call void @_ZNSt6localeD1Ev(ptr noundef nonnull align 8 dereferenceable(8) %10) #3
  br label %62

62:                                               ; preds = %58, %54, %50
  call void @_ZNSt6localeD1Ev(ptr noundef nonnull align 8 dereferenceable(8) %11) #3
  br label %64

63:                                               ; preds = %41, %16
  ret void

64:                                               ; preds = %62, %46
  %65 = getelementptr inbounds ptr, ptr %13, i64 1
  call void @_ZNSt14basic_ofstreamIcSt11char_traitsIcEED2Ev(ptr noundef nonnull align 8 dereferenceable(248) %12, ptr noundef %65) #3
  br label %66

66:                                               ; preds = %64, %42
  %67 = getelementptr inbounds i8, ptr %12, i64 248
  call void @_ZN25cmGeneratedFileStreamBaseD2Ev(ptr noundef nonnull align 8 dereferenceable(100) %67) #3
  br label %68

68:                                               ; preds = %66
  %69 = load ptr, ptr %7, align 8
  %70 = load i32, ptr %8, align 4
  %71 = insertvalue { ptr, i32 } poison, ptr %69, 0
  %72 = insertvalue { ptr, i32 } %71, i32 %70, 1
  resume { ptr, i32 } %72
}