; Function Attrs: mustprogress uwtable
define dso_local void @_ZN21cmGeneratedFileStreamC2E16codecvt_Encoding(ptr noundef nonnull align 8 dereferenceable(348) %0, ptr noundef %1, i32 noundef %2) unnamed_addr #3 align 2 personality ptr @__gxx_personality_v0 {
  %4 = alloca %"class.std::locale", align 8
  %5 = alloca %"class.std::locale", align 8
  %6 = alloca %"class.std::locale", align 8
  %7 = getelementptr inbounds i8, ptr %0, i64 248
  tail call void @_ZNSt7__cxx1112basic_stringIcSt11char_traitsIcESaIcEEC1Ev(ptr noundef nonnull align 8 dereferenceable(32) %7) #15
  %8 = getelementptr inbounds i8, ptr %0, i64 280
  tail call void @_ZNSt7__cxx1112basic_stringIcSt11char_traitsIcESaIcEEC1Ev(ptr noundef nonnull align 8 dereferenceable(32) %8) #15
  %9 = getelementptr inbounds i8, ptr %0, i64 312
  tail call void @_ZNSt7__cxx1112basic_stringIcSt11char_traitsIcESaIcEEC1Ev(ptr noundef nonnull align 8 dereferenceable(32) %9) #15
  %10 = getelementptr inbounds i8, ptr %0, i64 344
  store <4 x i8> <i8 0, i8 0, i8 0, i8 1>, ptr %10, align 8
  %11 = getelementptr inbounds i8, ptr %1, i64 8
  invoke void @_ZNSt14basic_ofstreamIcSt11char_traitsIcEEC2Ev(ptr noundef nonnull align 8 dereferenceable(248) %0, ptr noundef nonnull %11)
          to label %12 unwind label %30

12:                                               ; preds = %3
  %13 = load ptr, ptr %1, align 8
  store ptr %13, ptr %0, align 8
  %14 = getelementptr inbounds i8, ptr %1, i64 40
  %15 = load ptr, ptr %14, align 8
  %16 = getelementptr i8, ptr %13, i64 -24
  %17 = load i64, ptr %16, align 8
  %18 = getelementptr inbounds i8, ptr %0, i64 %17
  store ptr %15, ptr %18, align 8
  %.not = icmp eq i32 %2, 0
  br i1 %.not, label %39, label %19

19:                                               ; preds = %12
  %20 = load ptr, ptr %0, align 8
  %21 = getelementptr i8, ptr %20, i64 -24
  %22 = load i64, ptr %21, align 8
  %23 = getelementptr inbounds i8, ptr %0, i64 %22
  %24 = getelementptr inbounds i8, ptr %23, i64 208
  call void @_ZNSt6localeC1ERKS_(ptr noundef nonnull align 8 dereferenceable(8) %6, ptr noundef nonnull align 8 dereferenceable(8) %24) #15
  %25 = invoke noalias noundef nonnull dereferenceable(32) ptr @_Znwm(i64 noundef 32) #16
          to label %26 unwind label %32

26:                                               ; preds = %19
  invoke void @_ZN7codecvtC1E16codecvt_Encoding(ptr noundef nonnull align 8 dereferenceable(25) %25, i32 noundef %2)
          to label %27 unwind label %34

27:                                               ; preds = %26
  invoke void @_ZNSt6localeC2I7codecvtEERKS_PT_(ptr noundef nonnull align 8 dereferenceable(8) %5, ptr noundef nonnull align 8 dereferenceable(8) %6, ptr noundef nonnull %25)
          to label %28 unwind label %32

28:                                               ; preds = %27
  invoke void @_ZNSt9basic_iosIcSt11char_traitsIcEE5imbueERKSt6locale(ptr dead_on_unwind nonnull writable sret(%"class.std::locale") align 8 %4, ptr noundef nonnull align 8 dereferenceable(264) %23, ptr noundef nonnull align 8 dereferenceable(8) %5)
          to label %29 unwind label %36

29:                                               ; preds = %28
  call void @_ZNSt6localeD1Ev(ptr noundef nonnull align 8 dereferenceable(8) %4) #15
  call void @_ZNSt6localeD1Ev(ptr noundef nonnull align 8 dereferenceable(8) %5) #15
  call void @_ZNSt6localeD1Ev(ptr noundef nonnull align 8 dereferenceable(8) %6) #15
  br label %39

30:                                               ; preds = %3
  %31 = landingpad { ptr, i32 }
          cleanup
  br label %40

32:                                               ; preds = %27, %19
  %33 = landingpad { ptr, i32 }
          cleanup
  br label %38

34:                                               ; preds = %26
  %35 = landingpad { ptr, i32 }
          cleanup
  call void @_ZdlPv(ptr noundef nonnull %25) #17
  br label %38

36:                                               ; preds = %28
  %37 = landingpad { ptr, i32 }
          cleanup
  call void @_ZNSt6localeD1Ev(ptr noundef nonnull align 8 dereferenceable(8) %5) #15
  br label %38

38:                                               ; preds = %36, %34, %32
  %.pn = phi { ptr, i32 } [ %37, %36 ], [ %33, %32 ], [ %35, %34 ]
  call void @_ZNSt6localeD1Ev(ptr noundef nonnull align 8 dereferenceable(8) %6) #15
  call void @_ZNSt14basic_ofstreamIcSt11char_traitsIcEED2Ev(ptr noundef nonnull align 8 dereferenceable(248) %0, ptr noundef nonnull %11) #15
  br label %40

39:                                               ; preds = %29, %12
  ret void

40:                                               ; preds = %38, %30
  %.pn.pn = phi { ptr, i32 } [ %.pn, %38 ], [ %31, %30 ]
  call void @_ZN25cmGeneratedFileStreamBaseD2Ev(ptr noundef nonnull align 8 dereferenceable(100) %7) #15
  resume { ptr, i32 } %.pn.pn
}